; Function Attrs: nofree norecurse nosync nounwind memory(readwrite, inaccessiblemem: none) uwtable
define void @stb_compress_dxt_block(ptr noundef writeonly captures(none) %0, ptr noundef readonly captures(none) %1, i32 noundef %2, i32 noundef %3) local_unnamed_addr #8 {
  %5 = alloca [16 x [4 x i8]], align 16
  call void @llvm.lifetime.start.p0(i64 64, ptr nonnull %5) #10
  %.not = icmp eq i32 %2, 0
  br i1 %.not, label %.loopexit, label %6

6:                                                ; preds = %4
  %7 = getelementptr inbounds nuw i8, ptr %1, i64 3
  %8 = load i8, ptr %7, align 1, !tbaa !3
  %9 = zext i8 %8 to i32
  br label %10

10:                                               ; preds = %10, %6
  %indvars.iv.i = phi i64 [ 1, %6 ], [ %indvars.iv.next.i, %10 ]
  %.06586.i = phi i32 [ %9, %6 ], [ %.166.i, %10 ]
  %.06785.i = phi i32 [ %9, %6 ], [ %.168.i, %10 ]
  %11 = shl nsw i64 %indvars.iv.i, 2
  %12 = getelementptr inbounds nuw i8, ptr %7, i64 %11
  %13 = load i8, ptr %12, align 1, !tbaa !3
  %14 = zext i8 %13 to i32
  %15 = icmp samesign ugt i32 %.06785.i, %14
  %spec.select.i = tail call i32 @llvm.smax.i32(i32 %.06586.i, i32 %14)
  %.168.i = tail call i32 @llvm.umin.i32(i32 %.06785.i, i32 %14)
  %.166.i = select i1 %15, i32 %.06586.i, i32 %spec.select.i
  %indvars.iv.next.i = add nuw nsw i64 %indvars.iv.i, 1
  %exitcond.not.i = icmp eq i64 %indvars.iv.next.i, 16
  br i1 %exitcond.not.i, label %16, label %10, !llvm.loop !26

16:                                               ; preds = %10
  %17 = trunc nuw i32 %.166.i to i8
  store i8 %17, ptr %0, align 1, !tbaa !3
  %18 = trunc nuw i32 %.168.i to i8
  %19 = getelementptr inbounds nuw i8, ptr %0, i64 1
  store i8 %18, ptr %19, align 1, !tbaa !3
  %20 = getelementptr inbounds nuw i8, ptr %0, i64 2
  %21 = sub nsw i32 %.166.i, %.168.i
  %22 = shl nsw i32 %21, 2
  %23 = shl nsw i32 %21, 1
  %24 = icmp slt i32 %21, 8
  %25 = add nsw i32 %21, -1
  %26 = lshr i32 %21, 1
  %27 = add nuw nsw i32 %26, 2
  %28 = select i1 %24, i32 %25, i32 %27
  br label %29

29:                                               ; preds = %53, %16
  %indvars.iv93.i = phi i64 [ 0, %16 ], [ %indvars.iv.next94.i, %53 ]
  %.091.i = phi ptr [ %20, %16 ], [ %.1.i, %53 ]
  %.06989.i = phi i32 [ 0, %16 ], [ %.170.i, %53 ]
  %.07188.i = phi i32 [ 0, %16 ], [ %.172.i, %53 ]
  %30 = shl nsw i64 %indvars.iv93.i, 2
  %31 = getelementptr inbounds nuw i8, ptr %7, i64 %30
  %32 = load i8, ptr %31, align 1, !tbaa !3
  %33 = zext i8 %32 to i32
  %reass.add.i = sub nsw i32 %33, %.168.i
  %reass.mul.i = mul nsw i32 %reass.add.i, 7
  %34 = add i32 %reass.mul.i, %28
  %.not.not.i = icmp slt i32 %34, %22
  %.neg80.i = select i1 %.not.not.i, i32 0, i32 4
  %35 = select i1 %.not.not.i, i32 0, i32 %22
  %36 = sub nsw i32 %34, %35
  %.not.not79.i = icmp slt i32 %36, %23
  %.neg81.i = select i1 %.not.not79.i, i32 0, i32 6
  %.neg82.i = add nuw nsw i32 %.neg81.i, %.neg80.i
  %37 = select i1 %.not.not79.i, i32 0, i32 %23
  %38 = sub nsw i32 %36, %37
  %39 = icmp sge i32 %38, %21
  %.neg83.i = sext i1 %39 to i32
  %.neg84.i = add nsw i32 %.neg82.i, %.neg83.i
  %40 = and i32 %.neg84.i, 7
  %41 = icmp samesign ult i32 %40, 2
  %42 = zext i1 %41 to i32
  %43 = xor i32 %40, %42
  %44 = shl i32 %43, %.07188.i
  %45 = or i32 %44, %.06989.i
  %46 = add nsw i32 %.07188.i, 3
  %47 = icmp sgt i32 %.07188.i, 4
  br i1 %47, label %48, label %53

48:                                               ; preds = %29
  %49 = trunc i32 %45 to i8
  %50 = getelementptr inbounds nuw i8, ptr %.091.i, i64 1
  store i8 %49, ptr %.091.i, align 1, !tbaa !3
  %51 = ashr i32 %45, 8
  %52 = add nsw i32 %.07188.i, -5
  br label %53

53:                                               ; preds = %48, %29
  %.172.i = phi i32 [ %52, %48 ], [ %46, %29 ]
  %.170.i = phi i32 [ %51, %48 ], [ %45, %29 ]
  %.1.i = phi ptr [ %50, %48 ], [ %.091.i, %29 ]
  %indvars.iv.next94.i = add nuw nsw i64 %indvars.iv93.i, 1
  %exitcond96.not.i = icmp eq i64 %indvars.iv.next94.i, 16
  br i1 %exitcond96.not.i, label %stb__CompressAlphaBlock.exit, label %29, !llvm.loop !27

stb__CompressAlphaBlock.exit:                     ; preds = %53
  call void @llvm.memcpy.p0.p0.i64(ptr noundef nonnull align 16 dereferenceable(64) %5, ptr noundef nonnull align 1 dereferenceable(64) %1, i64 64, i1 false)
  br label %54

54:                                               ; preds = %stb__CompressAlphaBlock.exit, %54
  %indvars.iv = phi i64 [ 0, %stb__CompressAlphaBlock.exit ], [ %indvars.iv.next, %54 ]
  %55 = getelementptr inbounds nuw [16 x [4 x i8]], ptr %5, i64 0, i64 %indvars.iv, i64 3
  store i8 -1, ptr %55, align 1, !tbaa !3
  %indvars.iv.next = add nuw nsw i64 %indvars.iv, 1
  %exitcond.not = icmp eq i64 %indvars.iv.next, 16
  br i1 %exitcond.not, label %.loopexit.loopexit, label %54, !llvm.loop !28

.loopexit.loopexit:                               ; preds = %54
  %56 = getelementptr inbounds nuw i8, ptr %0, i64 8
  br label %.loopexit

.loopexit:                                        ; preds = %.loopexit.loopexit, %4
  %.011 = phi ptr [ %1, %4 ], [ %5, %.loopexit.loopexit ]
  %.010 = phi ptr [ %0, %4 ], [ %56, %.loopexit.loopexit ]
  call void @stb__CompressColorBlock(ptr noundef %.010, ptr noundef %.011, i32 noundef %3)
  call void @llvm.lifetime.end.p0(i64 64, ptr nonnull %5) #10
  ret void
}